target datalayout = "e-m:e-p270:32:32-p271:32:32-p272:64:64-i64:64-i128:128-f80:128-n8:16:32:64-S128"
target triple = "x86_64-pc-linux-gnu"

%"class.absl::NoDestructor" = type { %"class.absl::NoDestructor<absl::profiling_internal::SampleRecorder<absl::container_internal::HashtablezInfo>>::PlacementImpl" }
%"class.absl::NoDestructor<absl::profiling_internal::SampleRecorder<absl::container_internal::HashtablezInfo>>::PlacementImpl" = type { [712 x i8] }
%"struct.absl::container_internal::HashtablezInfo" = type { %"struct.absl::profiling_internal::Sample", %"struct.std::atomic", %"struct.std::atomic", %"struct.std::atomic", %"struct.std::atomic", %"struct.std::atomic", %"struct.std::atomic", %"struct.std::atomic", %"struct.std::atomic", %"struct.std::atomic", %"struct.std::atomic", %"class.absl::Time", i32, i16, [64 x ptr], i64, i64, i64 }
%"struct.absl::profiling_internal::Sample" = type { %"class.absl::Mutex", ptr, ptr, i64 }
%"class.absl::Mutex" = type { %"struct.std::atomic.2" }
%"struct.std::atomic.2" = type { %"struct.std::__atomic_base.3" }
%"struct.std::__atomic_base.3" = type { i64 }
%"struct.std::atomic" = type { %"struct.std::__atomic_base" }
%"struct.std::__atomic_base" = type { i64 }
%"class.absl::Time" = type { %"class.absl::Duration" }
%"class.absl::Duration" = type { %"class.absl::Duration::HiRep", i32 }
%"class.absl::Duration::HiRep" = type { i32, i32 }
%"class.absl::profiling_internal::SampleRecorder" = type { %"struct.std::atomic", %"struct.std::atomic", %"struct.std::atomic", %"struct.std::atomic.0", %"struct.absl::container_internal::HashtablezInfo", %"struct.std::atomic.4" }
%"struct.std::atomic.0" = type { %"struct.std::__atomic_base.1" }
%"struct.std::__atomic_base.1" = type { ptr }
%"struct.std::atomic.4" = type { %"struct.std::__atomic_base.5" }
%"struct.std::__atomic_base.5" = type { ptr }

@_ZZN4absl18container_internal23GlobalHashtablezSamplerEvE7sampler = internal global %"class.absl::NoDestructor" zeroinitializer, align 8
@_ZGVZN4absl18container_internal23GlobalHashtablezSamplerEvE7sampler = internal global i64 0, align 8

; Function Attrs: mustprogress nounwind uwtable
define linkonce_odr dso_local noundef ptr @_ZSt7launderIN4absl18profiling_internal14SampleRecorderINS0_18container_internal14HashtablezInfoEEEEPT_S7_(ptr noundef %0) #4 comdat {
  %2 = alloca ptr, align 8
  store ptr %0, ptr %2, align 8, !tbaa !60
  %3 = load ptr, ptr %2, align 8, !tbaa !60
  ret ptr %3
}

; Function Attrs: mustprogress nounwind uwtable
define linkonce_odr dso_local noundef ptr @_ZN4absl12NoDestructorINS_18profiling_internal14SampleRecorderINS_18container_internal14HashtablezInfoEEEE13PlacementImpl7LaunderIS5_EEPT_SA_(ptr noundef %0) #4 comdat align 2 {
  %2 = alloca ptr, align 8
  store ptr %0, ptr %2, align 8, !tbaa !60
  %3 = load ptr, ptr %2, align 8, !tbaa !60
  %4 = call noundef ptr @_ZSt7launderIN4absl18profiling_internal14SampleRecorderINS0_18container_internal14HashtablezInfoEEEEPT_S7_(ptr noundef %3) #1
  ret ptr %4
}

; Function Attrs: mustprogress uwtable
define linkonce_odr dso_local noundef ptr @_ZN4absl12NoDestructorINS_18profiling_internal14SampleRecorderINS_18container_internal14HashtablezInfoEEEE13PlacementImpl3getEv(ptr noundef nonnull align 8 dereferenceable(712) %0) #0 comdat align 2 {
  %2 = alloca ptr, align 8
  store ptr %0, ptr %2, align 8, !tbaa !77
  %3 = load ptr, ptr %2, align 8
  %4 = getelementptr inbounds nuw %"class.absl::NoDestructor<absl::profiling_internal::SampleRecorder<absl::container_internal::HashtablezInfo>>::PlacementImpl", ptr %3, i32 0, i32 0
  %5 = call noundef ptr @_ZN4absl12NoDestructorINS_18profiling_internal14SampleRecorderINS_18container_internal14HashtablezInfoEEEE13PlacementImpl7LaunderIS5_EEPT_SA_(ptr noundef %4)
  ret ptr %5
}

; Function Attrs: mustprogress uwtable
define linkonce_odr dso_local noundef ptr @_ZN4absl12NoDestructorINS_18profiling_internal14SampleRecorderINS_18container_internal14HashtablezInfoEEEE3getEv(ptr noundef nonnull align 8 dereferenceable(712) %0) #0 comdat align 2 {
  %2 = alloca ptr, align 8
  store ptr %0, ptr %2, align 8, !tbaa !5
  %3 = load ptr, ptr %2, align 8
  %4 = getelementptr inbounds nuw %"class.absl::NoDestructor", ptr %3, i32 0, i32 0
  %5 = call noundef ptr @_ZN4absl12NoDestructorINS_18profiling_internal14SampleRecorderINS_18container_internal14HashtablezInfoEEEE13PlacementImpl3getEv(ptr noundef nonnull align 8 dereferenceable(712) %4)
  ret ptr %5
}

; Function Attrs: alwaysinline mustprogress nounwind uwtable
define linkonce_odr dso_local noundef i64 @_ZNSt13__atomic_baseImE9fetch_subEmSt12memory_order(ptr noundef nonnull align 8 dereferenceable(8) %0, i64 noundef %1, i32 noundef %2) #5 comdat align 2 {
  %4 = alloca ptr, align 8
  %5 = alloca i64, align 8
  %6 = alloca i32, align 4
  %7 = alloca i64, align 8
  %8 = alloca i64, align 8
  store ptr %0, ptr %4, align 8, !tbaa !41
  store i64 %1, ptr %5, align 8, !tbaa !23
  store i32 %2, ptr %6, align 4, !tbaa !43
  %9 = load ptr, ptr %4, align 8
  %10 = getelementptr inbounds nuw %"struct.std::__atomic_base", ptr %9, i32 0, i32 0
  %11 = load i32, ptr %6, align 4, !tbaa !43
  %12 = load i64, ptr %5, align 8, !tbaa !23
  store i64 %12, ptr %7, align 8, !tbaa !23
  switch i32 %11, label %13 [
    i32 1, label %16
    i32 2, label %16
    i32 3, label %19
    i32 4, label %22
    i32 5, label %25
  ]

13:                                               ; preds = %3
  %14 = load i64, ptr %7, align 8
  %15 = atomicrmw sub ptr %10, i64 %14 monotonic, align 8
  store i64 %15, ptr %8, align 8
  br label %28

16:                                               ; preds = %3, %3
  %17 = load i64, ptr %7, align 8
  %18 = atomicrmw sub ptr %10, i64 %17 acquire, align 8
  store i64 %18, ptr %8, align 8
  br label %28

19:                                               ; preds = %3
  %20 = load i64, ptr %7, align 8
  %21 = atomicrmw sub ptr %10, i64 %20 release, align 8
  store i64 %21, ptr %8, align 8
  br label %28

22:                                               ; preds = %3
  %23 = load i64, ptr %7, align 8
  %24 = atomicrmw sub ptr %10, i64 %23 acq_rel, align 8
  store i64 %24, ptr %8, align 8
  br label %28

25:                                               ; preds = %3
  %26 = load i64, ptr %7, align 8
  %27 = atomicrmw sub ptr %10, i64 %26 seq_cst, align 8
  store i64 %27, ptr %8, align 8
  br label %28

28:                                               ; preds = %25, %22, %19, %16, %13
  %29 = load i64, ptr %8, align 8, !tbaa !23
  ret i64 %29
}

; Function Attrs: mustprogress uwtable
define linkonce_odr dso_local noundef nonnull align 8 dereferenceable(712) ptr @_ZN4absl12NoDestructorINS_18profiling_internal14SampleRecorderINS_18container_internal14HashtablezInfoEEEEdeEv(ptr noundef nonnull align 8 dereferenceable(712) %0) #0 comdat align 2 {
  %2 = alloca ptr, align 8
  store ptr %0, ptr %2, align 8, !tbaa !5
  %3 = load ptr, ptr %2, align 8
  %4 = call noundef ptr @_ZN4absl12NoDestructorINS_18profiling_internal14SampleRecorderINS_18container_internal14HashtablezInfoEEEE3getEv(ptr noundef nonnull align 8 dereferenceable(712) %3)
  ret ptr %4
}

; Function Attrs: mustprogress uwtable
define linkonce_odr dso_local void @_ZN4absl18profiling_internal14SampleRecorderINS_18container_internal14HashtablezInfoEE10UnregisterEPS3_(ptr noundef nonnull align 8 dereferenceable(712) %0, ptr noundef %1) #0 comdat align 2 {
  %3 = alloca ptr, align 8
  %4 = alloca ptr, align 8
  store ptr %0, ptr %3, align 8, !tbaa !60
  store ptr %1, ptr %4, align 8, !tbaa !10
  %5 = load ptr, ptr %3, align 8
  %6 = load ptr, ptr %4, align 8, !tbaa !10
  call void @_ZN4absl18profiling_internal14SampleRecorderINS_18container_internal14HashtablezInfoEE8PushDeadEPS3_(ptr noundef nonnull align 8 dereferenceable(712) %5, ptr noundef %6)
  %7 = getelementptr inbounds nuw %"class.absl::profiling_internal::SampleRecorder", ptr %5, i32 0, i32 1
  %8 = call noundef i64 @_ZNSt13__atomic_baseImE9fetch_subEmSt12memory_order(ptr noundef nonnull align 8 dereferenceable(8) %7, i64 noundef 1, i32 noundef 0) #1
  ret void
}

; Function Attrs: mustprogress uwtable
define dso_local noundef nonnull align 8 dereferenceable(712) ptr @_ZN4absl18container_internal23GlobalHashtablezSamplerEv() #0 personality ptr @__gxx_personality_v0 {
  %1 = alloca ptr, align 8
  %2 = alloca i32, align 4
  %3 = load atomic i8, ptr @_ZGVZN4absl18container_internal23GlobalHashtablezSamplerEvE7sampler acquire, align 8
  %4 = icmp eq i8 %3, 0
  br i1 %4, label %5, label %10, !prof !4

5:                                                ; preds = %0
  %6 = call i32 @__cxa_guard_acquire(ptr @_ZGVZN4absl18container_internal23GlobalHashtablezSamplerEvE7sampler) #1
  %7 = icmp ne i32 %6, 0
  br i1 %7, label %8, label %10

8:                                                ; preds = %5
  invoke void @_ZN4absl12NoDestructorINS_18profiling_internal14SampleRecorderINS_18container_internal14HashtablezInfoEEEEC2IJETnNSt9enable_ifIXntsr3std7is_sameIFvDpRNSt5decayIT_E4typeEEFvRS6_EEE5valueEiE4typeELi0EEEDpOSA_(ptr noundef nonnull align 8 dereferenceable(712) @_ZZN4absl18container_internal23GlobalHashtablezSamplerEvE7sampler)
          to label %9 unwind label %12

9:                                                ; preds = %8
  call void @__cxa_guard_release(ptr @_ZGVZN4absl18container_internal23GlobalHashtablezSamplerEvE7sampler) #1
  br label %10

10:                                               ; preds = %9, %5, %0
  %11 = call noundef nonnull align 8 dereferenceable(712) ptr @_ZN4absl12NoDestructorINS_18profiling_internal14SampleRecorderINS_18container_internal14HashtablezInfoEEEEdeEv(ptr noundef nonnull align 8 dereferenceable(712) @_ZZN4absl18container_internal23GlobalHashtablezSamplerEvE7sampler)
  ret ptr %11

12:                                               ; preds = %8
  %13 = landingpad { ptr, i32 }
          cleanup
  %14 = extractvalue { ptr, i32 } %13, 0
  store ptr %14, ptr %1, align 8
  %15 = extractvalue { ptr, i32 } %13, 1
  store i32 %15, ptr %2, align 4
  call void @__cxa_guard_abort(ptr @_ZGVZN4absl18container_internal23GlobalHashtablezSamplerEvE7sampler) #1
  br label %16

16:                                               ; preds = %12
  %17 = load ptr, ptr %1, align 8
  %18 = load i32, ptr %2, align 4
  %19 = insertvalue { ptr, i32 } poison, ptr %17, 0
  %20 = insertvalue { ptr, i32 } %19, i32 %18, 1
  resume { ptr, i32 } %20
}

; Function Attrs: mustprogress uwtable
define dso_local void @_ZN4absl18container_internal12UnsampleSlowEPNS0_14HashtablezInfoE(ptr noundef %0) #0 {
  %2 = alloca ptr, align 8
  store ptr %0, ptr %2, align 8, !tbaa !10
  %3 = call noundef nonnull align 8 dereferenceable(712) ptr @_ZN4absl18container_internal23GlobalHashtablezSamplerEv()
  %4 = load ptr, ptr %2, align 8, !tbaa !10
  call void @_ZN4absl18profiling_internal14SampleRecorderINS_18container_internal14HashtablezInfoEE10UnregisterEPS3_(ptr noundef nonnull align 8 dereferenceable(712) %3, ptr noundef %4)
  ret void
}