; Function Attrs: mustprogress uwtable
define dso_local void @_ZN4absl18container_internal12UnsampleSlowEPNS0_14HashtablezInfoE(ptr noundef %0) local_unnamed_addr #0 personality ptr @__gxx_personality_v0 {
  %2 = load atomic i8, ptr @_ZGVZN4absl18container_internal23GlobalHashtablezSamplerEvE7sampler acquire, align 8
  %3 = icmp eq i8 %2, 0
  br i1 %3, label %4, label %_ZN4absl18container_internal23GlobalHashtablezSamplerEv.exit, !prof !4

4:                                                ; preds = %1
  %5 = tail call i32 @__cxa_guard_acquire(ptr nonnull @_ZGVZN4absl18container_internal23GlobalHashtablezSamplerEvE7sampler) #13
  %.not.i = icmp eq i32 %5, 0
  br i1 %.not.i, label %_ZN4absl18container_internal23GlobalHashtablezSamplerEv.exit, label %6

6:                                                ; preds = %4
  invoke void @_ZN4absl12NoDestructorINS_18profiling_internal14SampleRecorderINS_18container_internal14HashtablezInfoEEEEC2IJETnNSt9enable_ifIXntsr3std7is_sameIFvDpRNSt5decayIT_E4typeEEFvRS6_EEE5valueEiE4typeELi0EEEDpOSA_(ptr noundef nonnull align 8 dereferenceable(712) @_ZZN4absl18container_internal23GlobalHashtablezSamplerEvE7sampler)
          to label %7 unwind label %8

7:                                                ; preds = %6
  tail call void @__cxa_guard_release(ptr nonnull @_ZGVZN4absl18container_internal23GlobalHashtablezSamplerEvE7sampler) #13
  br label %_ZN4absl18container_internal23GlobalHashtablezSamplerEv.exit

8:                                                ; preds = %6
  %9 = landingpad { ptr, i32 }
          cleanup
  tail call void @__cxa_guard_abort(ptr nonnull @_ZGVZN4absl18container_internal23GlobalHashtablezSamplerEvE7sampler) #13
  resume { ptr, i32 } %9

_ZN4absl18container_internal23GlobalHashtablezSamplerEv.exit: ; preds = %1, %4, %7
  tail call void @_ZN4absl18profiling_internal14SampleRecorderINS_18container_internal14HashtablezInfoEE8PushDeadEPS3_(ptr noundef nonnull align 8 dereferenceable(712) @_ZZN4absl18container_internal23GlobalHashtablezSamplerEvE7sampler, ptr noundef %0)
  %10 = atomicrmw sub ptr getelementptr inbounds nuw (i8, ptr @_ZZN4absl18container_internal23GlobalHashtablezSamplerEvE7sampler, i64 8), i64 1 monotonic, align 8
  ret void
}